; Function Attrs: mustprogress nofree norecurse nosync nounwind willreturn memory(argmem: read) uwtable
define dso_local zeroext i1 @is_projection_capable_plan(ptr noundef readonly captures(none) %0) local_unnamed_addr #4 {
  %2 = load i32, ptr %0, align 4
  switch i32 %2, label %7 [
    i32 369, label %8
    i32 359, label %8
    i32 360, label %8
    i32 361, label %8
    i32 366, label %8
    i32 370, label %8
    i32 371, label %8
    i32 372, label %8
    i32 332, label %8
    i32 333, label %8
    i32 334, label %8
    i32 335, label %8
    i32 354, label %3
    i32 331, label %8
  ]

3:                                                ; preds = %1
  %4 = getelementptr inbounds nuw i8, ptr %0, i64 112
  %5 = load i32, ptr %4, align 8
  %6 = and i32 %5, 4
  %.not = icmp ne i32 %6, 0
  br label %8

7:                                                ; preds = %1
  br label %8

8:                                                ; preds = %1, %3, %1, %1, %1, %1, %1, %1, %1, %1, %1, %1, %1, %1, %7
  %.0 = phi i1 [ true, %7 ], [ false, %1 ], [ false, %1 ], [ false, %1 ], [ false, %1 ], [ false, %1 ], [ false, %1 ], [ false, %1 ], [ false, %1 ], [ false, %1 ], [ false, %1 ], [ false, %1 ], [ false, %1 ], [ %.not, %3 ], [ false, %1 ]
  ret i1 %.0
}